; Function Attrs: null_pointer_is_valid sspstrong uwtable
define internal i32 @netlogon_dissect_netrserverreqchallenge_rqst(ptr noundef %0, i32 noundef %1, ptr noundef %2, ptr noundef %3, ptr noundef %4, ptr noundef %5) #0 {
  %7 = getelementptr inbounds nuw i8, ptr %4, i64 64
  %8 = load ptr, ptr %7, align 8
  %9 = load i32, ptr @hf_netlogon_logonsrv_handle, align 4
  %10 = tail call i32 @dissect_ndr_str_pointer_item(ptr noundef %0, i32 noundef %1, ptr noundef %2, ptr noundef %3, ptr noundef %4, ptr noundef %5, i32 noundef 2, ptr noundef nonnull @.str.1135, i32 noundef %9, i32 noundef 0)
  %11 = load i32, ptr @hf_netlogon_computer_name, align 4
  %12 = tail call i32 @dissect_ndr_pointer_cb(ptr noundef %0, i32 noundef %10, ptr noundef %2, ptr noundef %3, ptr noundef %4, ptr noundef %5, ptr noundef nonnull @dissect_ndr_wchar_cvstring, i32 noundef 1, ptr noundef nonnull @.str.252, i32 noundef %11, ptr noundef nonnull @cb_wstr_postprocess, ptr noundef nonnull inttoptr (i64 805306369 to ptr))
  %13 = getelementptr inbounds nuw i8, ptr %8, i64 80
  %14 = load ptr, ptr %13, align 8
  %15 = tail call fastcc ptr @create_global_netlogon_auth_vars(ptr noundef %2, ptr noundef %14)
  %16 = load i32, ptr @hf_client_challenge, align 4
  %.val = load i8, ptr %5, align 1
  %17 = and i8 %.val, 16
  %.not.i = icmp eq i8 %17, 0
  br i1 %.not.i, label %20, label %18

18:                                               ; preds = %6
  %19 = tail call i64 @tvb_get_letoh64(ptr noundef %0, i32 noundef %12)
  br label %22

20:                                               ; preds = %6
  %21 = tail call i64 @tvb_get_ntoh64(ptr noundef %0, i32 noundef %12)
  br label %22

22:                                               ; preds = %20, %18
  %23 = phi i64 [ %19, %18 ], [ %21, %20 ]
  %.not14.i = icmp eq ptr %3, null
  br i1 %.not14.i, label %26, label %24

24:                                               ; preds = %22
  %25 = tail call ptr @proto_tree_add_item(ptr noundef nonnull %3, i32 noundef %16, ptr noundef %0, i32 noundef %12, i32 noundef 8, i32 noundef 0)
  br label %26

26:                                               ; preds = %24, %22
  %.not15.i = icmp eq ptr %15, null
  br i1 %.not15.i, label %dissect_dcerpc_8bytes.exit, label %27

27:                                               ; preds = %26
  store i64 %23, ptr %15, align 8
  br label %dissect_dcerpc_8bytes.exit

dissect_dcerpc_8bytes.exit:                       ; preds = %26, %27
  %28 = add i32 %12, 8
  ret i32 %28
}